; Function Attrs: mustprogress nofree norecurse nosync nounwind memory(readwrite, inaccessiblemem: none) uwtable
define void @_ZN11dtNodeQueue11trickleDownEiP6dtNode(ptr noundef nonnull readonly align 8 captures(none) dereferenceable(16) %0, i32 noundef %1, ptr noundef %2) local_unnamed_addr #9 align 2 {
  %4 = getelementptr inbounds nuw i8, ptr %0, i64 12
  %.0.in15 = shl nsw i32 %1, 1
  %.016 = or disjoint i32 %.0.in15, 1
  %5 = load i32, ptr %4, align 4
  %6 = icmp slt i32 %.016, %5
  br i1 %6, label %.lr.ph, label %._crit_edge

.lr.ph:                                           ; preds = %3, %.lr.ph._crit_edge
  %7 = phi i32 [ %27, %.lr.ph._crit_edge ], [ %5, %3 ]
  %.019 = phi i32 [ %.0, %.lr.ph._crit_edge ], [ %.016, %3 ]
  %.0.in18 = phi i32 [ %.0.in, %.lr.ph._crit_edge ], [ %.0.in15, %3 ]
  %.01217 = phi i32 [ %.1, %.lr.ph._crit_edge ], [ %1, %3 ]
  %8 = add nsw i32 %.0.in18, 2
  %9 = icmp slt i32 %8, %7
  %.pre = load ptr, ptr %0, align 8
  %10 = sext i32 %.019 to i64
  br i1 %9, label %11, label %.lr.ph._crit_edge

11:                                               ; preds = %.lr.ph
  %12 = getelementptr inbounds ptr, ptr %.pre, i64 %10
  %13 = load ptr, ptr %12, align 8
  %14 = getelementptr inbounds nuw i8, ptr %13, i64 16
  %15 = load float, ptr %14, align 4
  %16 = sext i32 %8 to i64
  %17 = getelementptr inbounds ptr, ptr %.pre, i64 %16
  %18 = load ptr, ptr %17, align 8
  %19 = getelementptr inbounds nuw i8, ptr %18, i64 16
  %20 = load float, ptr %19, align 4
  %21 = fcmp ogt float %15, %20
  br i1 %21, label %22, label %.lr.ph._crit_edge

22:                                               ; preds = %11
  br label %.lr.ph._crit_edge

.lr.ph._crit_edge:                                ; preds = %.lr.ph, %22, %11
  %.pre-phi = phi i64 [ %16, %22 ], [ %10, %11 ], [ %10, %.lr.ph ]
  %.1 = phi i32 [ %8, %22 ], [ %.019, %11 ], [ %.019, %.lr.ph ]
  %23 = getelementptr inbounds ptr, ptr %.pre, i64 %.pre-phi
  %24 = load ptr, ptr %23, align 8
  %25 = sext i32 %.01217 to i64
  %26 = getelementptr inbounds ptr, ptr %.pre, i64 %25
  store ptr %24, ptr %26, align 8
  %.0.in = shl nsw i32 %.1, 1
  %.0 = or disjoint i32 %.0.in, 1
  %27 = load i32, ptr %4, align 4
  %28 = icmp slt i32 %.0, %27
  br i1 %28, label %.lr.ph, label %._crit_edge, !llvm.loop !9

._crit_edge:                                      ; preds = %.lr.ph._crit_edge, %3
  %.012.lcssa = phi i32 [ %1, %3 ], [ %.1, %.lr.ph._crit_edge ]
  %29 = icmp sgt i32 %.012.lcssa, 0
  br i1 %29, label %.lr.ph.i, label %_ZN11dtNodeQueue8bubbleUpEiP6dtNode.exit

.lr.ph.i:                                         ; preds = %._crit_edge
  %30 = getelementptr inbounds nuw i8, ptr %2, i64 16
  br label %31

31:                                               ; preds = %40, %.lr.ph.i
  %.01013.i = phi i32 [ %.012.lcssa, %.lr.ph.i ], [ %.014.i, %40 ]
  %.014.in.i = add nsw i32 %.01013.i, -1
  %.014.i = sdiv i32 %.014.in.i, 2
  %32 = load ptr, ptr %0, align 8
  %33 = sext i32 %.014.i to i64
  %34 = getelementptr inbounds ptr, ptr %32, i64 %33
  %35 = load ptr, ptr %34, align 8
  %36 = getelementptr inbounds nuw i8, ptr %35, i64 16
  %37 = load float, ptr %36, align 4
  %38 = load float, ptr %30, align 4
  %39 = fcmp ogt float %37, %38
  br i1 %39, label %40, label %_ZN11dtNodeQueue8bubbleUpEiP6dtNode.exit

40:                                               ; preds = %31
  %41 = zext nneg i32 %.01013.i to i64
  %42 = getelementptr inbounds nuw ptr, ptr %32, i64 %41
  store ptr %35, ptr %42, align 8
  %43 = icmp sgt i32 %.01013.i, 2
  br i1 %43, label %31, label %_ZN11dtNodeQueue8bubbleUpEiP6dtNode.exit, !llvm.loop !8

_ZN11dtNodeQueue8bubbleUpEiP6dtNode.exit:         ; preds = %31, %40, %._crit_edge
  %.010.lcssa.i = phi i32 [ %.012.lcssa, %._crit_edge ], [ %.01013.i, %31 ], [ %.014.i, %40 ]
  %44 = load ptr, ptr %0, align 8
  %45 = sext i32 %.010.lcssa.i to i64
  %46 = getelementptr inbounds ptr, ptr %44, i64 %45
  store ptr %2, ptr %46, align 8
  ret void
}